target datalayout = "e-m:e-p270:32:32-p271:32:32-p272:64:64-i64:64-i128:128-f80:128-n8:16:32:64-S128"
target triple = "x86_64-pc-linux-gnu"

; Function Attrs: mustprogress nounwind uwtable
define internal noundef zeroext i1 @_ZL15canGuaranteeTCOj(i32 noundef %0) #1 {
  %2 = alloca i32, align 4
  store i32 %0, ptr %2, align 4
  %3 = load i32, ptr %2, align 4
  %4 = icmp eq i32 %3, 8
  br i1 %4, label %20, label %5

5:                                                ; preds = %1
  %6 = load i32, ptr %2, align 4
  %7 = icmp eq i32 %6, 10
  br i1 %7, label %20, label %8

8:                                                ; preds = %5
  %9 = load i32, ptr %2, align 4
  %10 = icmp eq i32 %9, 92
  br i1 %10, label %20, label %11

11:                                               ; preds = %8
  %12 = load i32, ptr %2, align 4
  %13 = icmp eq i32 %12, 11
  br i1 %13, label %20, label %14

14:                                               ; preds = %11
  %15 = load i32, ptr %2, align 4
  %16 = icmp eq i32 %15, 18
  br i1 %16, label %20, label %17

17:                                               ; preds = %14
  %18 = load i32, ptr %2, align 4
  %19 = icmp eq i32 %18, 20
  br label %20

20:                                               ; preds = %17, %14, %11, %8, %5, %1
  %21 = phi i1 [ true, %14 ], [ true, %11 ], [ true, %8 ], [ true, %5 ], [ true, %1 ], [ %19, %17 ]
  ret i1 %21
}

; Function Attrs: mustprogress nounwind uwtable
define internal noundef zeroext i1 @_ZL18shouldGuaranteeTCOjb(i32 noundef %0, i1 noundef zeroext %1) #1 {
  %3 = alloca i32, align 4
  %4 = alloca i8, align 1
  store i32 %0, ptr %3, align 4
  %5 = zext i1 %1 to i8
  store i8 %5, ptr %4, align 1
  %6 = load i8, ptr %4, align 1
  %7 = trunc i8 %6 to i1
  br i1 %7, label %8, label %11

8:                                                ; preds = %2
  %9 = load i32, ptr %3, align 4
  %10 = call noundef zeroext i1 @_ZL15canGuaranteeTCOj(i32 noundef %9)
  br i1 %10, label %17, label %11

11:                                               ; preds = %8, %2
  %12 = load i32, ptr %3, align 4
  %13 = icmp eq i32 %12, 18
  br i1 %13, label %17, label %14

14:                                               ; preds = %11
  %15 = load i32, ptr %3, align 4
  %16 = icmp eq i32 %15, 20
  br label %17

17:                                               ; preds = %14, %11, %8
  %18 = phi i1 [ true, %11 ], [ true, %8 ], [ %16, %14 ]
  ret i1 %18
}

; Function Attrs: mustprogress nounwind uwtable
define dso_local noundef zeroext i1 @_ZN4llvm3X8611isCalleePopEjbbb(i32 noundef %0, i1 noundef zeroext %1, i1 noundef zeroext %2, i1 noundef zeroext %3) #1 {
  %5 = alloca i1, align 1
  %6 = alloca i32, align 4
  %7 = alloca i8, align 1
  %8 = alloca i8, align 1
  %9 = alloca i8, align 1
  store i32 %0, ptr %6, align 4
  %10 = zext i1 %1 to i8
  store i8 %10, ptr %7, align 1
  %11 = zext i1 %2 to i8
  store i8 %11, ptr %8, align 1
  %12 = zext i1 %3 to i8
  store i8 %12, ptr %9, align 1
  %13 = load i8, ptr %8, align 1
  %14 = trunc i8 %13 to i1
  br i1 %14, label %21, label %15

15:                                               ; preds = %4
  %16 = load i32, ptr %6, align 4
  %17 = load i8, ptr %9, align 1
  %18 = trunc i8 %17 to i1
  %19 = call noundef zeroext i1 @_ZL18shouldGuaranteeTCOjb(i32 noundef %16, i1 noundef zeroext %18)
  br i1 %19, label %20, label %21

20:                                               ; preds = %15
  store i1 true, ptr %5, align 1
  br label %28

21:                                               ; preds = %15, %4
  %22 = load i32, ptr %6, align 4
  switch i32 %22, label %23 [
    i32 64, label %24
    i32 65, label %24
    i32 70, label %24
    i32 80, label %24
  ]

23:                                               ; preds = %21
  store i1 false, ptr %5, align 1
  br label %28

24:                                               ; preds = %21, %21, %21, %21
  %25 = load i8, ptr %7, align 1
  %26 = trunc i8 %25 to i1
  %27 = xor i1 %26, true
  store i1 %27, ptr %5, align 1
  br label %28

28:                                               ; preds = %24, %23, %20
  %29 = load i1, ptr %5, align 1
  ret i1 %29
}