; Function Attrs: mustprogress nofree norecurse nosync nounwind willreturn memory(none) uwtable
define dso_local noundef zeroext i1 @_ZN4llvm3X8611isCalleePopEjbbb(i32 noundef %0, i1 noundef zeroext %1, i1 noundef zeroext %2, i1 noundef zeroext %3) local_unnamed_addr #7 {
  br i1 %2, label %8, label %5

5:                                                ; preds = %4
  br i1 %3, label %6, label %7

6:                                                ; preds = %5
  switch i32 %0, label %_ZL18shouldGuaranteeTCOjb.exit.thread.fold.split [
    i32 92, label %_ZL18shouldGuaranteeTCOjb.exit.thread
    i32 18, label %_ZL18shouldGuaranteeTCOjb.exit.thread
    i32 11, label %_ZL18shouldGuaranteeTCOjb.exit.thread
    i32 10, label %_ZL18shouldGuaranteeTCOjb.exit.thread
    i32 8, label %_ZL18shouldGuaranteeTCOjb.exit.thread
    i32 20, label %_ZL18shouldGuaranteeTCOjb.exit.thread
    i32 64, label %9
    i32 65, label %9
    i32 70, label %9
    i32 80, label %9
  ]

7:                                                ; preds = %5
  switch i32 %0, label %_ZL18shouldGuaranteeTCOjb.exit.thread.fold.split [
    i32 18, label %_ZL18shouldGuaranteeTCOjb.exit.thread
    i32 20, label %_ZL18shouldGuaranteeTCOjb.exit.thread
    i32 64, label %9
    i32 65, label %9
    i32 70, label %9
    i32 80, label %9
  ]

8:                                                ; preds = %4
  switch i32 %0, label %_ZL18shouldGuaranteeTCOjb.exit.thread.fold.split [
    i32 64, label %9
    i32 65, label %9
    i32 70, label %9
    i32 80, label %9
  ]

9:                                                ; preds = %6, %6, %6, %6, %7, %7, %7, %7, %8, %8, %8, %8
  %10 = xor i1 %1, true
  br label %_ZL18shouldGuaranteeTCOjb.exit.thread

_ZL18shouldGuaranteeTCOjb.exit.thread.fold.split: ; preds = %6, %7, %8
  br label %_ZL18shouldGuaranteeTCOjb.exit.thread

_ZL18shouldGuaranteeTCOjb.exit.thread:            ; preds = %6, %6, %6, %6, %6, %6, %7, %7, %_ZL18shouldGuaranteeTCOjb.exit.thread.fold.split, %9
  %.0 = phi i1 [ %10, %9 ], [ true, %7 ], [ true, %6 ], [ true, %6 ], [ true, %6 ], [ true, %6 ], [ true, %6 ], [ true, %6 ], [ true, %7 ], [ false, %_ZL18shouldGuaranteeTCOjb.exit.thread.fold.split ]
  ret i1 %.0
}